target datalayout = "e-m:e-p270:32:32-p271:32:32-p272:64:64-i64:64-i128:128-f80:128-n8:16:32:64-S128"
target triple = "x86_64-pc-linux-gnu"

%struct.ItemPointerData = type { %struct.BlockIdData, i16 }
%struct.BlockIdData = type { i16, i16 }
%struct.BTScanOpaqueData = type { i8, i32, ptr, i32, i8, i8, i8, ptr, ptr, ptr, ptr, i32, ptr, ptr, i32, %struct.BTScanPosData, %struct.BTScanPosData }
%struct.BTScanPosData = type { i32, i32, i32, i32, i64, i32, i32, i8, i8, i32, i32, i32, [1358 x %struct.BTScanPosItem] }
%struct.BTScanPosItem = type { %struct.ItemPointerData, i16, i16 }
%struct.IndexScanDescData = type { ptr, ptr, ptr, i32, i32, ptr, ptr, i8, i8, i8, i8, i8, ptr, ptr, ptr, ptr, ptr, %struct.ItemPointerData, i8, ptr, i8, ptr, ptr, i8, ptr }

; Function Attrs: inlinehint nounwind uwtable
define internal zeroext i1 @BufferIsValid(i32 noundef %0) #2 {
  %2 = alloca i32, align 4
  store i32 %0, ptr %2, align 4
  %3 = load i32, ptr %2, align 4
  %4 = icmp ne i32 %3, 0
  ret i1 %4
}

; Function Attrs: inlinehint nounwind uwtable
define internal zeroext i1 @BlockNumberIsValid(i32 noundef %0) #2 {
  %2 = alloca i32, align 4
  store i32 %0, ptr %2, align 4
  %3 = load i32, ptr %2, align 4
  %4 = icmp ne i32 %3, -1
  ret i1 %4
}

; Function Attrs: nounwind uwtable
define dso_local void @btendscan(ptr noundef %0) #0 {
  %2 = alloca ptr, align 8
  %3 = alloca ptr, align 8
  store ptr %0, ptr %2, align 8
  call void @llvm.lifetime.start.p0(i64 8, ptr %3) #8
  %4 = load ptr, ptr %2, align 8
  %5 = getelementptr inbounds nuw %struct.IndexScanDescData, ptr %4, i32 0, i32 12
  %6 = load ptr, ptr %5, align 8
  store ptr %6, ptr %3, align 8
  %7 = load ptr, ptr %3, align 8
  %8 = getelementptr inbounds nuw %struct.BTScanOpaqueData, ptr %7, i32 0, i32 15
  %9 = getelementptr inbounds nuw %struct.BTScanPosData, ptr %8, i32 0, i32 1
  %10 = load i32, ptr %9, align 4
  %11 = call zeroext i1 @BlockNumberIsValid(i32 noundef %10)
  br i1 %11, label %12, label %40

12:                                               ; preds = %1
  %13 = load ptr, ptr %3, align 8
  %14 = getelementptr inbounds nuw %struct.BTScanOpaqueData, ptr %13, i32 0, i32 11
  %15 = load i32, ptr %14, align 8
  %16 = icmp sgt i32 %15, 0
  br i1 %16, label %17, label %19

17:                                               ; preds = %12
  %18 = load ptr, ptr %2, align 8
  call void @_bt_killitems(ptr noundef %18)
  br label %19

19:                                               ; preds = %17, %12
  br label %20

20:                                               ; preds = %19
  %21 = load ptr, ptr %3, align 8
  %22 = getelementptr inbounds nuw %struct.BTScanOpaqueData, ptr %21, i32 0, i32 15
  %23 = getelementptr inbounds nuw %struct.BTScanPosData, ptr %22, i32 0, i32 0
  %24 = load i32, ptr %23, align 8
  %25 = call zeroext i1 @BufferIsValid(i32 noundef %24)
  br i1 %25, label %26, label %37

26:                                               ; preds = %20
  br label %27

27:                                               ; preds = %26
  %28 = load ptr, ptr %3, align 8
  %29 = getelementptr inbounds nuw %struct.BTScanOpaqueData, ptr %28, i32 0, i32 15
  %30 = getelementptr inbounds nuw %struct.BTScanPosData, ptr %29, i32 0, i32 0
  %31 = load i32, ptr %30, align 8
  call void @ReleaseBuffer(i32 noundef %31)
  %32 = load ptr, ptr %3, align 8
  %33 = getelementptr inbounds nuw %struct.BTScanOpaqueData, ptr %32, i32 0, i32 15
  %34 = getelementptr inbounds nuw %struct.BTScanPosData, ptr %33, i32 0, i32 0
  store i32 0, ptr %34, align 8
  br label %35

35:                                               ; preds = %27
  br label %36

36:                                               ; preds = %35
  br label %37

37:                                               ; preds = %36, %20
  br label %38

38:                                               ; preds = %37
  br label %39

39:                                               ; preds = %38
  br label %40

40:                                               ; preds = %39, %1
  %41 = load ptr, ptr %3, align 8
  %42 = getelementptr inbounds nuw %struct.BTScanOpaqueData, ptr %41, i32 0, i32 14
  store i32 -1, ptr %42, align 8
  br label %43

43:                                               ; preds = %40
  %44 = load ptr, ptr %3, align 8
  %45 = getelementptr inbounds nuw %struct.BTScanOpaqueData, ptr %44, i32 0, i32 16
  %46 = getelementptr inbounds nuw %struct.BTScanPosData, ptr %45, i32 0, i32 0
  %47 = load i32, ptr %46, align 8
  %48 = call zeroext i1 @BufferIsValid(i32 noundef %47)
  br i1 %48, label %49, label %60

49:                                               ; preds = %43
  br label %50

50:                                               ; preds = %49
  %51 = load ptr, ptr %3, align 8
  %52 = getelementptr inbounds nuw %struct.BTScanOpaqueData, ptr %51, i32 0, i32 16
  %53 = getelementptr inbounds nuw %struct.BTScanPosData, ptr %52, i32 0, i32 0
  %54 = load i32, ptr %53, align 8
  call void @ReleaseBuffer(i32 noundef %54)
  %55 = load ptr, ptr %3, align 8
  %56 = getelementptr inbounds nuw %struct.BTScanOpaqueData, ptr %55, i32 0, i32 16
  %57 = getelementptr inbounds nuw %struct.BTScanPosData, ptr %56, i32 0, i32 0
  store i32 0, ptr %57, align 8
  br label %58

58:                                               ; preds = %50
  br label %59

59:                                               ; preds = %58
  br label %60

60:                                               ; preds = %59, %43
  br label %61

61:                                               ; preds = %60
  br label %62

62:                                               ; preds = %61
  %63 = load ptr, ptr %3, align 8
  %64 = getelementptr inbounds nuw %struct.BTScanOpaqueData, ptr %63, i32 0, i32 2
  %65 = load ptr, ptr %64, align 8
  %66 = icmp ne ptr %65, null
  br i1 %66, label %67, label %71

67:                                               ; preds = %62
  %68 = load ptr, ptr %3, align 8
  %69 = getelementptr inbounds nuw %struct.BTScanOpaqueData, ptr %68, i32 0, i32 2
  %70 = load ptr, ptr %69, align 8
  call void @pfree(ptr noundef %70)
  br label %71

71:                                               ; preds = %67, %62
  %72 = load ptr, ptr %3, align 8
  %73 = getelementptr inbounds nuw %struct.BTScanOpaqueData, ptr %72, i32 0, i32 9
  %74 = load ptr, ptr %73, align 8
  %75 = icmp ne ptr %74, null
  br i1 %75, label %76, label %80

76:                                               ; preds = %71
  %77 = load ptr, ptr %3, align 8
  %78 = getelementptr inbounds nuw %struct.BTScanOpaqueData, ptr %77, i32 0, i32 9
  %79 = load ptr, ptr %78, align 8
  call void @MemoryContextDelete(ptr noundef %79)
  br label %80

80:                                               ; preds = %76, %71
  %81 = load ptr, ptr %3, align 8
  %82 = getelementptr inbounds nuw %struct.BTScanOpaqueData, ptr %81, i32 0, i32 10
  %83 = load ptr, ptr %82, align 8
  %84 = icmp ne ptr %83, null
  br i1 %84, label %85, label %89

85:                                               ; preds = %80
  %86 = load ptr, ptr %3, align 8
  %87 = getelementptr inbounds nuw %struct.BTScanOpaqueData, ptr %86, i32 0, i32 10
  %88 = load ptr, ptr %87, align 8
  call void @pfree(ptr noundef %88)
  br label %89

89:                                               ; preds = %85, %80
  %90 = load ptr, ptr %3, align 8
  %91 = getelementptr inbounds nuw %struct.BTScanOpaqueData, ptr %90, i32 0, i32 12
  %92 = load ptr, ptr %91, align 8
  %93 = icmp ne ptr %92, null
  br i1 %93, label %94, label %98

94:                                               ; preds = %89
  %95 = load ptr, ptr %3, align 8
  %96 = getelementptr inbounds nuw %struct.BTScanOpaqueData, ptr %95, i32 0, i32 12
  %97 = load ptr, ptr %96, align 8
  call void @pfree(ptr noundef %97)
  br label %98

98:                                               ; preds = %94, %89
  %99 = load ptr, ptr %3, align 8
  call void @pfree(ptr noundef %99)
  call void @llvm.lifetime.end.p0(i64 8, ptr %3) #8
  ret void
}