; Function Attrs: nounwind uwtable
define dso_local void @btendscan(ptr noundef %0) #0 {
  %2 = getelementptr inbounds nuw i8, ptr %0, i64 56
  %3 = load ptr, ptr %2, align 8
  %4 = getelementptr inbounds nuw i8, ptr %3, i64 88
  %5 = getelementptr inbounds nuw i8, ptr %3, i64 92
  %6 = load i32, ptr %5, align 4
  %.not26 = icmp eq i32 %6, -1
  br i1 %.not26, label %15, label %7

7:                                                ; preds = %1
  %8 = getelementptr inbounds nuw i8, ptr %3, i64 56
  %9 = load i32, ptr %8, align 8
  %10 = icmp sgt i32 %9, 0
  br i1 %10, label %11, label %12

11:                                               ; preds = %7
  tail call void @_bt_killitems(ptr noundef nonnull %0) #8
  br label %12

12:                                               ; preds = %7, %11
  %13 = load i32, ptr %4, align 8
  %.not27 = icmp eq i32 %13, 0
  br i1 %.not27, label %15, label %14

14:                                               ; preds = %12
  tail call void @ReleaseBuffer(i32 noundef %13) #8
  store i32 0, ptr %4, align 8
  br label %15

15:                                               ; preds = %12, %14, %1
  %16 = getelementptr inbounds nuw i8, ptr %3, i64 80
  store i32 -1, ptr %16, align 8
  %17 = getelementptr inbounds nuw i8, ptr %3, i64 13720
  %18 = load i32, ptr %17, align 8
  %.not28 = icmp eq i32 %18, 0
  br i1 %.not28, label %20, label %19

19:                                               ; preds = %15
  tail call void @ReleaseBuffer(i32 noundef %18) #8
  store i32 0, ptr %17, align 8
  br label %20

20:                                               ; preds = %19, %15
  %21 = getelementptr inbounds nuw i8, ptr %3, i64 8
  %22 = load ptr, ptr %21, align 8
  %.not = icmp eq ptr %22, null
  br i1 %.not, label %24, label %23

23:                                               ; preds = %20
  tail call void @pfree(ptr noundef nonnull %22) #8
  br label %24

24:                                               ; preds = %23, %20
  %25 = getelementptr inbounds nuw i8, ptr %3, i64 40
  %26 = load ptr, ptr %25, align 8
  %.not23 = icmp eq ptr %26, null
  br i1 %.not23, label %28, label %27

27:                                               ; preds = %24
  tail call void @MemoryContextDelete(ptr noundef nonnull %26) #8
  br label %28

28:                                               ; preds = %27, %24
  %29 = getelementptr inbounds nuw i8, ptr %3, i64 48
  %30 = load ptr, ptr %29, align 8
  %.not24 = icmp eq ptr %30, null
  br i1 %.not24, label %32, label %31

31:                                               ; preds = %28
  tail call void @pfree(ptr noundef nonnull %30) #8
  br label %32

32:                                               ; preds = %31, %28
  %33 = getelementptr inbounds nuw i8, ptr %3, i64 64
  %34 = load ptr, ptr %33, align 8
  %.not25 = icmp eq ptr %34, null
  br i1 %.not25, label %36, label %35

35:                                               ; preds = %32
  tail call void @pfree(ptr noundef nonnull %34) #8
  br label %36

36:                                               ; preds = %35, %32
  tail call void @pfree(ptr noundef nonnull %3) #8
  ret void
}